; Function Attrs: mustprogress nofree norecurse nosync nounwind willreturn memory(argmem: readwrite) uwtable
define internal noundef zeroext i1 @"_ZNSt17_Function_handlerIFvR16cmLocalGeneratorRK19cmListFileBacktraceSt10unique_ptrI15cmCustomCommandSt14default_deleteIS6_EEEZN10cmMakefile17AddUtilityCommandERKNSt7__cxx1112basic_stringIcSt11char_traitsIcESaIcEEEbS9_E3$_0E10_M_managerERSt9_Any_dataRKSM_St18_Manager_operation"(ptr nocapture noundef nonnull writeonly align 8 dereferenceable(16) %0, ptr noundef nonnull align 8 dereferenceable(16) %1, i32 noundef %2) #13 align 2 personality ptr @__gxx_personality_v0 {
  switch i32 %2, label %"_ZNSt14_Function_base13_Base_managerIZN10cmMakefile17AddUtilityCommandERKNSt7__cxx1112basic_stringIcSt11char_traitsIcESaIcEEEbSt10unique_ptrI15cmCustomCommandSt14default_deleteISB_EEE3$_0E10_M_managerERSt9_Any_dataRKSH_St18_Manager_operation.exit" [
    i32 0, label %4
    i32 1, label %5
    i32 2, label %6
  ]

4:                                                ; preds = %3
  store ptr @"_ZTIZN10cmMakefile17AddUtilityCommandERKNSt7__cxx1112basic_stringIcSt11char_traitsIcESaIcEEEbSt10unique_ptrI15cmCustomCommandSt14default_deleteIS9_EEE3$_0", ptr %0, align 8
  br label %"_ZNSt14_Function_base13_Base_managerIZN10cmMakefile17AddUtilityCommandERKNSt7__cxx1112basic_stringIcSt11char_traitsIcESaIcEEEbSt10unique_ptrI15cmCustomCommandSt14default_deleteISB_EEE3$_0E10_M_managerERSt9_Any_dataRKSH_St18_Manager_operation.exit"

5:                                                ; preds = %3
  store ptr %1, ptr %0, align 8
  br label %"_ZNSt14_Function_base13_Base_managerIZN10cmMakefile17AddUtilityCommandERKNSt7__cxx1112basic_stringIcSt11char_traitsIcESaIcEEEbSt10unique_ptrI15cmCustomCommandSt14default_deleteISB_EEE3$_0E10_M_managerERSt9_Any_dataRKSH_St18_Manager_operation.exit"

6:                                                ; preds = %3
  tail call void @llvm.memcpy.p0.p0.i64(ptr noundef nonnull align 8 dereferenceable(16) %0, ptr noundef nonnull align 8 dereferenceable(16) %1, i64 16, i1 false)
  br label %"_ZNSt14_Function_base13_Base_managerIZN10cmMakefile17AddUtilityCommandERKNSt7__cxx1112basic_stringIcSt11char_traitsIcESaIcEEEbSt10unique_ptrI15cmCustomCommandSt14default_deleteISB_EEE3$_0E10_M_managerERSt9_Any_dataRKSH_St18_Manager_operation.exit"

"_ZNSt14_Function_base13_Base_managerIZN10cmMakefile17AddUtilityCommandERKNSt7__cxx1112basic_stringIcSt11char_traitsIcESaIcEEEbSt10unique_ptrI15cmCustomCommandSt14default_deleteISB_EEE3$_0E10_M_managerERSt9_Any_dataRKSH_St18_Manager_operation.exit": ; preds = %3, %6, %5, %4
  ret i1 false
}